target datalayout = "e-m:e-p270:32:32-p271:32:32-p272:64:64-i64:64-i128:128-f80:128-n8:16:32:64-S128"
target triple = "x86_64-pc-linux-gnu"

%struct.wtap_reader = type { i32, i64, i64, i32, %struct.wtap_reader_buf, %struct.wtap_reader_buf, i8, i64, i64, i32, i32, i8, i64, i8, i32, ptr, %struct.z_stream_s, i8, ptr, ptr, %struct.LZ4F_frameInfo_t, [19 x i8], ptr, ptr }
%struct.wtap_reader_buf = type { ptr, ptr, i32 }
%struct.z_stream_s = type { ptr, i32, i64, ptr, i32, i64, ptr, ptr, ptr, ptr, ptr, i32, i64, i64 }
%struct.LZ4F_frameInfo_t = type { i32, i32, i32, i32, i64, i32, i32 }

; Function Attrs: alwaysinline nounwind
define internal ptr @memcpy.inline(ptr noalias %0, ptr noalias %1, i64 %2) #10 {
  %4 = alloca ptr, align 8
  %5 = alloca ptr, align 8
  %6 = alloca i64, align 8
  store ptr %0, ptr %4, align 8
  store ptr %1, ptr %5, align 8
  store i64 %2, ptr %6, align 8
  %7 = load ptr, ptr %4, align 8
  %8 = load ptr, ptr %5, align 8
  %9 = load i64, ptr %6, align 8
  %10 = load ptr, ptr %4, align 8
  %11 = call i64 @llvm.objectsize.i64.p0(ptr %10, i1 false, i1 true, i1 true)
  %12 = call ptr @__memcpy_chk(ptr noundef %7, ptr noundef %8, i64 noundef %9, i64 noundef %11) #14
  ret ptr %12
}

; Function Attrs: null_pointer_is_valid sspstrong uwtable
define internal i32 @gz_skip(ptr noundef %0, i64 noundef %1) #0 {
  %3 = alloca i32, align 4
  %4 = alloca ptr, align 8
  %5 = alloca i64, align 8
  %6 = alloca i32, align 4
  %7 = alloca i32, align 4
  store ptr %0, ptr %4, align 8
  store i64 %1, ptr %5, align 8
  call void @llvm.lifetime.start.p0(i64 4, ptr %6) #14
  br label %8

8:                                                ; preds = %84, %2
  %9 = load i64, ptr %5, align 8
  %10 = icmp ne i64 %9, 0
  br i1 %10, label %11, label %85

11:                                               ; preds = %8
  %12 = load ptr, ptr %4, align 8
  %13 = getelementptr inbounds nuw %struct.wtap_reader, ptr %12, i32 0, i32 5
  %14 = getelementptr inbounds nuw %struct.wtap_reader_buf, ptr %13, i32 0, i32 2
  %15 = load i32, ptr %14, align 8
  %16 = icmp ne i32 %15, 0
  br i1 %16, label %17, label %58

17:                                               ; preds = %11
  %18 = load ptr, ptr %4, align 8
  %19 = getelementptr inbounds nuw %struct.wtap_reader, ptr %18, i32 0, i32 5
  %20 = getelementptr inbounds nuw %struct.wtap_reader_buf, ptr %19, i32 0, i32 2
  %21 = load i32, ptr %20, align 8
  %22 = zext i32 %21 to i64
  %23 = load i64, ptr %5, align 8
  %24 = icmp sgt i64 %22, %23
  br i1 %24, label %25, label %28

25:                                               ; preds = %17
  %26 = load i64, ptr %5, align 8
  %27 = trunc i64 %26 to i32
  br label %33

28:                                               ; preds = %17
  %29 = load ptr, ptr %4, align 8
  %30 = getelementptr inbounds nuw %struct.wtap_reader, ptr %29, i32 0, i32 5
  %31 = getelementptr inbounds nuw %struct.wtap_reader_buf, ptr %30, i32 0, i32 2
  %32 = load i32, ptr %31, align 8
  br label %33

33:                                               ; preds = %28, %25
  %34 = phi i32 [ %27, %25 ], [ %32, %28 ]
  store i32 %34, ptr %6, align 4
  %35 = load i32, ptr %6, align 4
  %36 = load ptr, ptr %4, align 8
  %37 = getelementptr inbounds nuw %struct.wtap_reader, ptr %36, i32 0, i32 5
  %38 = getelementptr inbounds nuw %struct.wtap_reader_buf, ptr %37, i32 0, i32 2
  %39 = load i32, ptr %38, align 8
  %40 = sub i32 %39, %35
  store i32 %40, ptr %38, align 8
  %41 = load i32, ptr %6, align 4
  %42 = load ptr, ptr %4, align 8
  %43 = getelementptr inbounds nuw %struct.wtap_reader, ptr %42, i32 0, i32 5
  %44 = getelementptr inbounds nuw %struct.wtap_reader_buf, ptr %43, i32 0, i32 1
  %45 = load ptr, ptr %44, align 8
  %46 = zext i32 %41 to i64
  %47 = getelementptr i8, ptr %45, i64 %46
  store ptr %47, ptr %44, align 8
  %48 = load i32, ptr %6, align 4
  %49 = zext i32 %48 to i64
  %50 = load ptr, ptr %4, align 8
  %51 = getelementptr inbounds nuw %struct.wtap_reader, ptr %50, i32 0, i32 2
  %52 = load i64, ptr %51, align 8
  %53 = add i64 %52, %49
  store i64 %53, ptr %51, align 8
  %54 = load i32, ptr %6, align 4
  %55 = zext i32 %54 to i64
  %56 = load i64, ptr %5, align 8
  %57 = sub i64 %56, %55
  store i64 %57, ptr %5, align 8
  br label %84

58:                                               ; preds = %11
  %59 = load ptr, ptr %4, align 8
  %60 = getelementptr inbounds nuw %struct.wtap_reader, ptr %59, i32 0, i32 14
  %61 = load i32, ptr %60, align 4
  %62 = icmp ne i32 %61, 0
  br i1 %62, label %63, label %64

63:                                               ; preds = %58
  store i32 -1, ptr %3, align 4
  store i32 1, ptr %7, align 4
  br label %86

64:                                               ; preds = %58
  %65 = load ptr, ptr %4, align 8
  %66 = getelementptr inbounds nuw %struct.wtap_reader, ptr %65, i32 0, i32 6
  %67 = load i8, ptr %66, align 8, !range !9, !noundef !10
  %68 = trunc i8 %67 to i1
  br i1 %68, label %69, label %76

69:                                               ; preds = %64
  %70 = load ptr, ptr %4, align 8
  %71 = getelementptr inbounds nuw %struct.wtap_reader, ptr %70, i32 0, i32 4
  %72 = getelementptr inbounds nuw %struct.wtap_reader_buf, ptr %71, i32 0, i32 2
  %73 = load i32, ptr %72, align 8
  %74 = icmp eq i32 %73, 0
  br i1 %74, label %75, label %76

75:                                               ; preds = %69
  br label %85

76:                                               ; preds = %69, %64
  %77 = load ptr, ptr %4, align 8
  %78 = call i32 @fill_out_buffer(ptr noundef %77)
  %79 = icmp eq i32 %78, -1
  br i1 %79, label %80, label %81

80:                                               ; preds = %76
  store i32 -1, ptr %3, align 4
  store i32 1, ptr %7, align 4
  br label %86

81:                                               ; preds = %76
  br label %82

82:                                               ; preds = %81
  br label %83

83:                                               ; preds = %82
  br label %84

84:                                               ; preds = %83, %33
  br label %8, !llvm.loop !17

85:                                               ; preds = %75, %8
  store i32 0, ptr %3, align 4
  store i32 1, ptr %7, align 4
  br label %86

86:                                               ; preds = %85, %80, %63
  call void @llvm.lifetime.end.p0(i64 4, ptr %6) #14
  %87 = load i32, ptr %3, align 4
  ret i32 %87
}

; Function Attrs: null_pointer_is_valid sspstrong uwtable
define i32 @file_read(ptr noundef %0, i32 noundef %1, ptr noundef %2) #0 {
  %4 = alloca i32, align 4
  %5 = alloca ptr, align 8
  %6 = alloca i32, align 4
  %7 = alloca ptr, align 8
  %8 = alloca i32, align 4
  %9 = alloca i32, align 4
  %10 = alloca i32, align 4
  store ptr %0, ptr %5, align 8
  store i32 %1, ptr %6, align 4
  store ptr %2, ptr %7, align 8
  call void @llvm.lifetime.start.p0(i64 4, ptr %8) #14
  call void @llvm.lifetime.start.p0(i64 4, ptr %9) #14
  %11 = load i32, ptr %6, align 4
  %12 = icmp eq i32 %11, 0
  br i1 %12, label %13, label %14

13:                                               ; preds = %3
  store i32 0, ptr %4, align 4
  store i32 1, ptr %10, align 4
  br label %126

14:                                               ; preds = %3
  %15 = load ptr, ptr %7, align 8
  %16 = getelementptr inbounds nuw %struct.wtap_reader, ptr %15, i32 0, i32 13
  %17 = load i8, ptr %16, align 8, !range !9, !noundef !10
  %18 = trunc i8 %17 to i1
  br i1 %18, label %19, label %30

19:                                               ; preds = %14
  %20 = load ptr, ptr %7, align 8
  %21 = getelementptr inbounds nuw %struct.wtap_reader, ptr %20, i32 0, i32 13
  store i8 0, ptr %21, align 8
  %22 = load ptr, ptr %7, align 8
  %23 = load ptr, ptr %7, align 8
  %24 = getelementptr inbounds nuw %struct.wtap_reader, ptr %23, i32 0, i32 12
  %25 = load i64, ptr %24, align 8
  %26 = call i32 @gz_skip(ptr noundef %22, i64 noundef %25)
  %27 = icmp eq i32 %26, -1
  br i1 %27, label %28, label %29

28:                                               ; preds = %19
  store i32 -1, ptr %4, align 4
  store i32 1, ptr %10, align 4
  br label %126

29:                                               ; preds = %19
  br label %30

30:                                               ; preds = %29, %14
  store i32 0, ptr %8, align 4
  br label %31

31:                                               ; preds = %121, %30
  %32 = load ptr, ptr %7, align 8
  %33 = getelementptr inbounds nuw %struct.wtap_reader, ptr %32, i32 0, i32 5
  %34 = getelementptr inbounds nuw %struct.wtap_reader_buf, ptr %33, i32 0, i32 2
  %35 = load i32, ptr %34, align 8
  %36 = icmp ne i32 %35, 0
  br i1 %36, label %37, label %94

37:                                               ; preds = %31
  %38 = load ptr, ptr %7, align 8
  %39 = getelementptr inbounds nuw %struct.wtap_reader, ptr %38, i32 0, i32 5
  %40 = getelementptr inbounds nuw %struct.wtap_reader_buf, ptr %39, i32 0, i32 2
  %41 = load i32, ptr %40, align 8
  %42 = load i32, ptr %6, align 4
  %43 = icmp ugt i32 %41, %42
  br i1 %43, label %44, label %46

44:                                               ; preds = %37
  %45 = load i32, ptr %6, align 4
  br label %51

46:                                               ; preds = %37
  %47 = load ptr, ptr %7, align 8
  %48 = getelementptr inbounds nuw %struct.wtap_reader, ptr %47, i32 0, i32 5
  %49 = getelementptr inbounds nuw %struct.wtap_reader_buf, ptr %48, i32 0, i32 2
  %50 = load i32, ptr %49, align 8
  br label %51

51:                                               ; preds = %46, %44
  %52 = phi i32 [ %45, %44 ], [ %50, %46 ]
  store i32 %52, ptr %9, align 4
  %53 = load ptr, ptr %5, align 8
  %54 = icmp ne ptr %53, null
  br i1 %54, label %55, label %68

55:                                               ; preds = %51
  %56 = load ptr, ptr %5, align 8
  %57 = load ptr, ptr %7, align 8
  %58 = getelementptr inbounds nuw %struct.wtap_reader, ptr %57, i32 0, i32 5
  %59 = getelementptr inbounds nuw %struct.wtap_reader_buf, ptr %58, i32 0, i32 1
  %60 = load ptr, ptr %59, align 8
  %61 = load i32, ptr %9, align 4
  %62 = zext i32 %61 to i64
  %63 = call ptr @memcpy.inline(ptr noundef %56, ptr noundef %60, i64 noundef %62) #14
  %64 = load ptr, ptr %5, align 8
  %65 = load i32, ptr %9, align 4
  %66 = zext i32 %65 to i64
  %67 = getelementptr i8, ptr %64, i64 %66
  store ptr %67, ptr %5, align 8
  br label %68

68:                                               ; preds = %55, %51
  %69 = load i32, ptr %9, align 4
  %70 = load ptr, ptr %7, align 8
  %71 = getelementptr inbounds nuw %struct.wtap_reader, ptr %70, i32 0, i32 5
  %72 = getelementptr inbounds nuw %struct.wtap_reader_buf, ptr %71, i32 0, i32 1
  %73 = load ptr, ptr %72, align 8
  %74 = zext i32 %69 to i64
  %75 = getelementptr i8, ptr %73, i64 %74
  store ptr %75, ptr %72, align 8
  %76 = load i32, ptr %9, align 4
  %77 = load ptr, ptr %7, align 8
  %78 = getelementptr inbounds nuw %struct.wtap_reader, ptr %77, i32 0, i32 5
  %79 = getelementptr inbounds nuw %struct.wtap_reader_buf, ptr %78, i32 0, i32 2
  %80 = load i32, ptr %79, align 8
  %81 = sub i32 %80, %76
  store i32 %81, ptr %79, align 8
  %82 = load i32, ptr %9, align 4
  %83 = load i32, ptr %6, align 4
  %84 = sub i32 %83, %82
  store i32 %84, ptr %6, align 4
  %85 = load i32, ptr %9, align 4
  %86 = load i32, ptr %8, align 4
  %87 = add i32 %86, %85
  store i32 %87, ptr %8, align 4
  %88 = load i32, ptr %9, align 4
  %89 = zext i32 %88 to i64
  %90 = load ptr, ptr %7, align 8
  %91 = getelementptr inbounds nuw %struct.wtap_reader, ptr %90, i32 0, i32 2
  %92 = load i64, ptr %91, align 8
  %93 = add i64 %92, %89
  store i64 %93, ptr %91, align 8
  br label %120

94:                                               ; preds = %31
  %95 = load ptr, ptr %7, align 8
  %96 = getelementptr inbounds nuw %struct.wtap_reader, ptr %95, i32 0, i32 14
  %97 = load i32, ptr %96, align 4
  %98 = icmp ne i32 %97, 0
  br i1 %98, label %99, label %100

99:                                               ; preds = %94
  store i32 -1, ptr %4, align 4
  store i32 1, ptr %10, align 4
  br label %126

100:                                              ; preds = %94
  %101 = load ptr, ptr %7, align 8
  %102 = getelementptr inbounds nuw %struct.wtap_reader, ptr %101, i32 0, i32 6
  %103 = load i8, ptr %102, align 8, !range !9, !noundef !10
  %104 = trunc i8 %103 to i1
  br i1 %104, label %105, label %112

105:                                              ; preds = %100
  %106 = load ptr, ptr %7, align 8
  %107 = getelementptr inbounds nuw %struct.wtap_reader, ptr %106, i32 0, i32 4
  %108 = getelementptr inbounds nuw %struct.wtap_reader_buf, ptr %107, i32 0, i32 2
  %109 = load i32, ptr %108, align 8
  %110 = icmp eq i32 %109, 0
  br i1 %110, label %111, label %112

111:                                              ; preds = %105
  br label %124

112:                                              ; preds = %105, %100
  %113 = load ptr, ptr %7, align 8
  %114 = call i32 @fill_out_buffer(ptr noundef %113)
  %115 = icmp eq i32 %114, -1
  br i1 %115, label %116, label %117

116:                                              ; preds = %112
  store i32 -1, ptr %4, align 4
  store i32 1, ptr %10, align 4
  br label %126

117:                                              ; preds = %112
  br label %118

118:                                              ; preds = %117
  br label %119

119:                                              ; preds = %118
  br label %120

120:                                              ; preds = %119, %68
  br label %121

121:                                              ; preds = %120
  %122 = load i32, ptr %6, align 4
  %123 = icmp ne i32 %122, 0
  br i1 %123, label %31, label %124, !llvm.loop !19

124:                                              ; preds = %121, %111
  %125 = load i32, ptr %8, align 4
  store i32 %125, ptr %4, align 4
  store i32 1, ptr %10, align 4
  br label %126

126:                                              ; preds = %124, %116, %99, %28, %13
  call void @llvm.lifetime.end.p0(i64 4, ptr %9) #14
  call void @llvm.lifetime.end.p0(i64 4, ptr %8) #14
  %127 = load i32, ptr %4, align 4
  ret i32 %127
}