; Function Attrs: null_pointer_is_valid sspstrong uwtable
define i32 @file_read(ptr noundef %0, i32 noundef %1, ptr noundef %2) local_unnamed_addr #0 {
  %4 = icmp eq i32 %1, 0
  br i1 %4, label %gz_skip.exit, label %5

5:                                                ; preds = %3
  %6 = getelementptr inbounds nuw i8, ptr %2, i64 128
  %7 = load i8, ptr %6, align 8, !range !9, !noundef !10
  %8 = trunc nuw i8 %7 to i1
  br i1 %8, label %9, label %gz_skip.exit.thread

9:                                                ; preds = %5
  store i8 0, ptr %6, align 8
  %10 = getelementptr inbounds nuw i8, ptr %2, i64 120
  %11 = load i64, ptr %10, align 8
  %12 = getelementptr inbounds nuw i8, ptr %2, i64 132
  %13 = getelementptr inbounds nuw i8, ptr %2, i64 48
  %.not22.i = icmp eq i64 %11, 0
  br i1 %.not22.i, label %gz_skip.exit.thread, label %.lr.ph.i

.lr.ph.i:                                         ; preds = %9
  %14 = getelementptr inbounds nuw i8, ptr %2, i64 72
  %15 = getelementptr inbounds nuw i8, ptr %2, i64 64
  %16 = getelementptr inbounds nuw i8, ptr %2, i64 16
  %17 = getelementptr inbounds nuw i8, ptr %2, i64 80
  br label %18

18:                                               ; preds = %42, %.lr.ph.i
  %.01823.i = phi i64 [ %11, %.lr.ph.i ], [ %.1.i, %42 ]
  %19 = load i32, ptr %14, align 8
  %.not20.i = icmp eq i32 %19, 0
  br i1 %.not20.i, label %31, label %20

20:                                               ; preds = %18
  %21 = zext i32 %19 to i64
  %22 = tail call i64 @llvm.smin.i64(i64 %.01823.i, i64 %21)
  %23 = trunc i64 %22 to i32
  %24 = sub i32 %19, %23
  store i32 %24, ptr %14, align 8
  %25 = load ptr, ptr %15, align 8
  %26 = and i64 %22, 4294967295
  %27 = getelementptr i8, ptr %25, i64 %26
  store ptr %27, ptr %15, align 8
  %28 = load i64, ptr %16, align 8
  %29 = add i64 %28, %26
  store i64 %29, ptr %16, align 8
  %30 = sub i64 %.01823.i, %26
  br label %42

31:                                               ; preds = %18
  %32 = load i32, ptr %12, align 4
  %.not21.i = icmp eq i32 %32, 0
  br i1 %.not21.i, label %33, label %gz_skip.exit

33:                                               ; preds = %31
  %34 = load i8, ptr %17, align 8, !range !9, !noundef !10
  %35 = trunc nuw i8 %34 to i1
  br i1 %35, label %36, label %39

36:                                               ; preds = %33
  %37 = load i32, ptr %13, align 8
  %38 = icmp eq i32 %37, 0
  br i1 %38, label %gz_skip.exit.thread, label %39

39:                                               ; preds = %36, %33
  %40 = tail call fastcc i32 @fill_out_buffer(ptr noundef %2)
  %41 = icmp eq i32 %40, -1
  br i1 %41, label %gz_skip.exit, label %42

42:                                               ; preds = %39, %20
  %.1.i = phi i64 [ %30, %20 ], [ %.01823.i, %39 ]
  %.not.i = icmp eq i64 %.1.i, 0
  br i1 %.not.i, label %gz_skip.exit.thread, label %18, !llvm.loop !17

gz_skip.exit.thread:                              ; preds = %36, %42, %9, %5
  %43 = getelementptr inbounds nuw i8, ptr %2, i64 132
  %44 = getelementptr inbounds nuw i8, ptr %2, i64 48
  %45 = getelementptr inbounds nuw i8, ptr %2, i64 72
  %46 = getelementptr inbounds nuw i8, ptr %2, i64 64
  %47 = getelementptr inbounds nuw i8, ptr %2, i64 16
  %48 = getelementptr inbounds nuw i8, ptr %2, i64 80
  br label %49

49:                                               ; preds = %73, %gz_skip.exit.thread
  %.036 = phi i32 [ %1, %gz_skip.exit.thread ], [ %.137, %73 ]
  %.033 = phi ptr [ %0, %gz_skip.exit.thread ], [ %.235, %73 ]
  %.032 = phi i32 [ 0, %gz_skip.exit.thread ], [ %.2, %73 ]
  %50 = load i32, ptr %45, align 8
  %.not = icmp eq i32 %50, 0
  br i1 %.not, label %62, label %51

51:                                               ; preds = %49
  %.036. = tail call i32 @llvm.umin.i32(i32 %50, i32 %.036)
  %.not41 = icmp eq ptr %.033, null
  %.pre46 = load ptr, ptr %46, align 8
  %.pre48 = zext i32 %.036. to i64
  br i1 %.not41, label %._crit_edge, label %52

52:                                               ; preds = %51
  tail call void @llvm.memcpy.p0.p0.i64(ptr noundef nonnull align 1 %.033, ptr noundef align 1 %.pre46, i64 noundef range(i64 0, 4294967296) %.pre48, i1 noundef false) #21
  %53 = getelementptr i8, ptr %.033, i64 %.pre48
  %.pre = load ptr, ptr %46, align 8
  %.pre47 = load i32, ptr %45, align 8
  br label %._crit_edge

._crit_edge:                                      ; preds = %51, %52
  %54 = phi i32 [ %.pre47, %52 ], [ %50, %51 ]
  %55 = phi ptr [ %.pre, %52 ], [ %.pre46, %51 ]
  %.134 = phi ptr [ %53, %52 ], [ null, %51 ]
  %56 = getelementptr i8, ptr %55, i64 %.pre48
  store ptr %56, ptr %46, align 8
  %57 = sub i32 %54, %.036.
  store i32 %57, ptr %45, align 8
  %58 = sub i32 %.036, %.036.
  %59 = add i32 %.036., %.032
  %60 = load i64, ptr %47, align 8
  %61 = add i64 %60, %.pre48
  store i64 %61, ptr %47, align 8
  br label %73

62:                                               ; preds = %49
  %63 = load i32, ptr %43, align 4
  %.not40 = icmp eq i32 %63, 0
  br i1 %.not40, label %64, label %gz_skip.exit

64:                                               ; preds = %62
  %65 = load i8, ptr %48, align 8, !range !9, !noundef !10
  %66 = trunc nuw i8 %65 to i1
  br i1 %66, label %67, label %70

67:                                               ; preds = %64
  %68 = load i32, ptr %44, align 8
  %69 = icmp eq i32 %68, 0
  br i1 %69, label %gz_skip.exit, label %70

70:                                               ; preds = %67, %64
  %71 = tail call fastcc i32 @fill_out_buffer(ptr noundef %2)
  %72 = icmp eq i32 %71, -1
  br i1 %72, label %gz_skip.exit, label %73

73:                                               ; preds = %._crit_edge, %70
  %.137 = phi i32 [ %58, %._crit_edge ], [ %.036, %70 ]
  %.235 = phi ptr [ %.134, %._crit_edge ], [ %.033, %70 ]
  %.2 = phi i32 [ %59, %._crit_edge ], [ %.032, %70 ]
  %.not42 = icmp eq i32 %.137, 0
  br i1 %.not42, label %gz_skip.exit, label %49, !llvm.loop !19

gz_skip.exit:                                     ; preds = %39, %31, %73, %67, %70, %62, %3
  %.0 = phi i32 [ 0, %3 ], [ %.032, %67 ], [ %.2, %73 ], [ -1, %70 ], [ -1, %62 ], [ -1, %31 ], [ -1, %39 ]
  ret i32 %.0
}